; Function Attrs: nofree nounwind sspstrong uwtable
define dso_local void @main() local_unnamed_addr #0 {
  %1 = tail call i32 (i8*, ...) @__isoc99_scanf(i8* getelementptr inbounds ([6 x i8], [6 x i8]* @.str, i64 0, i64 0), i32* nonnull @m, i32* nonnull @n) #3
  %2 = load i32, i32* @m, align 4, !tbaa !5
  %3 = icmp sgt i32 %2, 0
  br i1 %3, label %8, label %4

4:                                                ; preds = %8, %0
  %5 = phi i32 [ %2, %0 ], [ %13, %8 ]
  %6 = load i32, i32* @n, align 4, !tbaa !5
  %7 = icmp sgt i32 %6, 0
  br i1 %7, label %16, label %26

8:                                                ; preds = %0, %8
  %9 = phi i64 [ %12, %8 ], [ 0, %0 ]
  %10 = getelementptr inbounds [100 x i32], [100 x i32]* @a, i64 0, i64 %9
  %11 = tail call i32 (i8*, ...) @__isoc99_scanf(i8* getelementptr inbounds ([3 x i8], [3 x i8]* @.str.1, i64 0, i64 0), i32* nonnull %10) #3
  %12 = add nuw nsw i64 %9, 1
  %13 = load i32, i32* @m, align 4, !tbaa !5
  %14 = sext i32 %13 to i64
  %15 = icmp slt i64 %12, %14
  br i1 %15, label %8, label %4, !llvm.loop !9

16:                                               ; preds = %4, %16
  %17 = phi i64 [ %20, %16 ], [ 0, %4 ]
  %18 = getelementptr inbounds [100 x i32], [100 x i32]* @b, i64 0, i64 %17
  %19 = tail call i32 (i8*, ...) @__isoc99_scanf(i8* getelementptr inbounds ([3 x i8], [3 x i8]* @.str.1, i64 0, i64 0), i32* nonnull %18) #3
  %20 = add nuw nsw i64 %17, 1
  %21 = load i32, i32* @n, align 4, !tbaa !5
  %22 = sext i32 %21 to i64
  %23 = icmp slt i64 %20, %22
  br i1 %23, label %16, label %24, !llvm.loop !11

24:                                               ; preds = %16
  %25 = load i32, i32* @m, align 4, !tbaa !5
  br label %26

26:                                               ; preds = %24, %4
  %27 = phi i32 [ %21, %24 ], [ %6, %4 ]
  %28 = phi i32 [ %25, %24 ], [ %5, %4 ]
  %29 = add i32 %28, -1
  %30 = icmp sgt i32 %28, 1
  br i1 %30, label %31, label %72

31:                                               ; preds = %26, %69
  %32 = phi i32 [ %70, %69 ], [ 0, %26 ]
  %33 = sub i32 %29, %32
  %34 = zext i32 %33 to i64
  %35 = icmp sgt i32 %29, %32
  br i1 %35, label %36, label %69

36:                                               ; preds = %31
  %37 = load i32, i32* getelementptr inbounds ([100 x i32], [100 x i32]* @a, i64 0, i64 0), align 16, !tbaa !5
  %38 = and i64 %34, 1
  %39 = icmp eq i32 %33, 1
  br i1 %39, label %58, label %40

40:                                               ; preds = %36
  %41 = and i64 %34, 4294967294
  br label %42

42:                                               ; preds = %150, %40
  %43 = phi i32 [ %37, %40 ], [ %151, %150 ]
  %44 = phi i64 [ 0, %40 ], [ %54, %150 ]
  %45 = phi i64 [ %41, %40 ], [ %152, %150 ]
  %46 = or i64 %44, 1
  %47 = getelementptr inbounds [100 x i32], [100 x i32]* @a, i64 0, i64 %46
  %48 = load i32, i32* %47, align 4, !tbaa !5
  %49 = icmp sgt i32 %43, %48
  br i1 %49, label %50, label %52

50:                                               ; preds = %42
  %51 = getelementptr inbounds [100 x i32], [100 x i32]* @a, i64 0, i64 %44
  store i32 %48, i32* %51, align 8, !tbaa !5
  store i32 %43, i32* %47, align 4, !tbaa !5
  br label %52

52:                                               ; preds = %50, %42
  %53 = phi i32 [ %48, %42 ], [ %43, %50 ]
  %54 = add nuw nsw i64 %44, 2
  %55 = getelementptr inbounds [100 x i32], [100 x i32]* @a, i64 0, i64 %54
  %56 = load i32, i32* %55, align 8, !tbaa !5
  %57 = icmp sgt i32 %53, %56
  br i1 %57, label %148, label %150

58:                                               ; preds = %150, %36
  %59 = phi i32 [ %37, %36 ], [ %151, %150 ]
  %60 = phi i64 [ 0, %36 ], [ %54, %150 ]
  %61 = icmp eq i64 %38, 0
  br i1 %61, label %69, label %62

62:                                               ; preds = %58
  %63 = add nuw nsw i64 %60, 1
  %64 = getelementptr inbounds [100 x i32], [100 x i32]* @a, i64 0, i64 %63
  %65 = load i32, i32* %64, align 4, !tbaa !5
  %66 = icmp sgt i32 %59, %65
  br i1 %66, label %67, label %69

67:                                               ; preds = %62
  %68 = getelementptr inbounds [100 x i32], [100 x i32]* @a, i64 0, i64 %60
  store i32 %65, i32* %68, align 4, !tbaa !5
  store i32 %59, i32* %64, align 4, !tbaa !5
  br label %69

69:                                               ; preds = %58, %62, %67, %31
  %70 = add nuw nsw i32 %32, 1
  %71 = icmp eq i32 %70, %29
  br i1 %71, label %72, label %31, !llvm.loop !12

72:                                               ; preds = %69, %26
  %73 = add i32 %27, -1
  %74 = icmp sgt i32 %27, 1
  br i1 %74, label %75, label %116

75:                                               ; preds = %72, %113
  %76 = phi i32 [ %114, %113 ], [ 0, %72 ]
  %77 = sub i32 %73, %76
  %78 = zext i32 %77 to i64
  %79 = icmp sgt i32 %73, %76
  br i1 %79, label %80, label %113

80:                                               ; preds = %75
  %81 = load i32, i32* getelementptr inbounds ([100 x i32], [100 x i32]* @b, i64 0, i64 0), align 16, !tbaa !5
  %82 = and i64 %78, 1
  %83 = icmp eq i32 %77, 1
  br i1 %83, label %102, label %84

84:                                               ; preds = %80
  %85 = and i64 %78, 4294967294
  br label %86

86:                                               ; preds = %156, %84
  %87 = phi i32 [ %81, %84 ], [ %157, %156 ]
  %88 = phi i64 [ 0, %84 ], [ %98, %156 ]
  %89 = phi i64 [ %85, %84 ], [ %158, %156 ]
  %90 = or i64 %88, 1
  %91 = getelementptr inbounds [100 x i32], [100 x i32]* @b, i64 0, i64 %90
  %92 = load i32, i32* %91, align 4, !tbaa !5
  %93 = icmp sgt i32 %87, %92
  br i1 %93, label %94, label %96

94:                                               ; preds = %86
  %95 = getelementptr inbounds [100 x i32], [100 x i32]* @b, i64 0, i64 %88
  store i32 %92, i32* %95, align 8, !tbaa !5
  store i32 %87, i32* %91, align 4, !tbaa !5
  br label %96

96:                                               ; preds = %94, %86
  %97 = phi i32 [ %92, %86 ], [ %87, %94 ]
  %98 = add nuw nsw i64 %88, 2
  %99 = getelementptr inbounds [100 x i32], [100 x i32]* @b, i64 0, i64 %98
  %100 = load i32, i32* %99, align 8, !tbaa !5
  %101 = icmp sgt i32 %97, %100
  br i1 %101, label %154, label %156

102:                                              ; preds = %156, %80
  %103 = phi i32 [ %81, %80 ], [ %157, %156 ]
  %104 = phi i64 [ 0, %80 ], [ %98, %156 ]
  %105 = icmp eq i64 %82, 0
  br i1 %105, label %113, label %106

106:                                              ; preds = %102
  %107 = add nuw nsw i64 %104, 1
  %108 = getelementptr inbounds [100 x i32], [100 x i32]* @b, i64 0, i64 %107
  %109 = load i32, i32* %108, align 4, !tbaa !5
  %110 = icmp sgt i32 %103, %109
  br i1 %110, label %111, label %113

111:                                              ; preds = %106
  %112 = getelementptr inbounds [100 x i32], [100 x i32]* @b, i64 0, i64 %104
  store i32 %109, i32* %112, align 4, !tbaa !5
  store i32 %103, i32* %108, align 4, !tbaa !5
  br label %113

113:                                              ; preds = %102, %106, %111, %75
  %114 = add nuw nsw i32 %76, 1
  %115 = icmp eq i32 %114, %73
  br i1 %115, label %116, label %75, !llvm.loop !12

116:                                              ; preds = %113, %72
  %117 = icmp sgt i32 %28, 0
  br i1 %117, label %118, label %130

118:                                              ; preds = %116
  %119 = zext i32 %28 to i64
  br label %120

120:                                              ; preds = %120, %118
  %121 = phi i64 [ 0, %118 ], [ %125, %120 ]
  %122 = getelementptr inbounds [100 x i32], [100 x i32]* @a, i64 0, i64 %121
  %123 = load i32, i32* %122, align 4, !tbaa !5
  %124 = tail call i32 (i8*, ...) @printf(i8* nonnull dereferenceable(1) getelementptr inbounds ([4 x i8], [4 x i8]* @.str.2, i64 0, i64 0), i32 %123) #3
  %125 = add nuw nsw i64 %121, 1
  %126 = icmp eq i64 %125, %119
  br i1 %126, label %127, label %120, !llvm.loop !13

127:                                              ; preds = %120
  %128 = load i32, i32* @n, align 4, !tbaa !5
  %129 = add i32 %128, -1
  br label %130

130:                                              ; preds = %127, %116
  %131 = phi i32 [ %129, %127 ], [ %73, %116 ]
  %132 = phi i32 [ %128, %127 ], [ %27, %116 ]
  %133 = icmp sgt i32 %132, 1
  br i1 %133, label %134, label %143

134:                                              ; preds = %130
  %135 = zext i32 %131 to i64
  br label %136

136:                                              ; preds = %136, %134
  %137 = phi i64 [ 0, %134 ], [ %141, %136 ]
  %138 = getelementptr inbounds [100 x i32], [100 x i32]* @b, i64 0, i64 %137
  %139 = load i32, i32* %138, align 4, !tbaa !5
  %140 = tail call i32 (i8*, ...) @printf(i8* nonnull dereferenceable(1) getelementptr inbounds ([4 x i8], [4 x i8]* @.str.2, i64 0, i64 0), i32 %139) #3
  %141 = add nuw nsw i64 %137, 1
  %142 = icmp eq i64 %141, %135
  br i1 %142, label %143, label %136, !llvm.loop !14

143:                                              ; preds = %136, %130
  %144 = sext i32 %131 to i64
  %145 = getelementptr inbounds [100 x i32], [100 x i32]* @b, i64 0, i64 %144
  %146 = load i32, i32* %145, align 4, !tbaa !5
  %147 = tail call i32 (i8*, ...) @printf(i8* nonnull dereferenceable(1) getelementptr inbounds ([3 x i8], [3 x i8]* @.str.1, i64 0, i64 0), i32 %146) #3
  ret void

148:                                              ; preds = %52
  %149 = getelementptr inbounds [100 x i32], [100 x i32]* @a, i64 0, i64 %46
  store i32 %56, i32* %149, align 4, !tbaa !5
  store i32 %53, i32* %55, align 8, !tbaa !5
  br label %150

150:                                              ; preds = %148, %52
  %151 = phi i32 [ %56, %52 ], [ %53, %148 ]
  %152 = add i64 %45, -2
  %153 = icmp eq i64 %152, 0
  br i1 %153, label %58, label %42, !llvm.loop !15

154:                                              ; preds = %96
  %155 = getelementptr inbounds [100 x i32], [100 x i32]* @b, i64 0, i64 %90
  store i32 %100, i32* %155, align 4, !tbaa !5
  store i32 %97, i32* %99, align 8, !tbaa !5
  br label %156

156:                                              ; preds = %154, %96
  %157 = phi i32 [ %100, %96 ], [ %97, %154 ]
  %158 = add i64 %89, -2
  %159 = icmp eq i64 %158, 0
  br i1 %159, label %102, label %86, !llvm.loop !15
}

; Function Attrs: nofree norecurse nosync nounwind sspstrong uwtable
define dso_local void @f2(i32* nocapture %0, i32 %1) local_unnamed_addr #1 {
  %3 = add i32 %1, -1
  %4 = icmp sgt i32 %1, 1
  br i1 %4, label %5, label %46

5:                                                ; preds = %2, %43
  %6 = phi i32 [ %44, %43 ], [ 0, %2 ]
  %7 = sub i32 %3, %6
  %8 = zext i32 %7 to i64
  %9 = icmp sgt i32 %3, %6
  br i1 %9, label %10, label %43

10:                                               ; preds = %5
  %11 = load i32, i32* %0, align 4, !tbaa !5
  %12 = and i64 %8, 1
  %13 = icmp eq i32 %7, 1
  br i1 %13, label %32, label %14

14:                                               ; preds = %10
  %15 = and i64 %8, 4294967294
  br label %16

16:                                               ; preds = %49, %14
  %17 = phi i32 [ %11, %14 ], [ %50, %49 ]
  %18 = phi i64 [ 0, %14 ], [ %28, %49 ]
  %19 = phi i64 [ %15, %14 ], [ %51, %49 ]
  %20 = or i64 %18, 1
  %21 = getelementptr inbounds i32, i32* %0, i64 %20
  %22 = load i32, i32* %21, align 4, !tbaa !5
  %23 = icmp sgt i32 %17, %22
  br i1 %23, label %24, label %26

24:                                               ; preds = %16
  %25 = getelementptr inbounds i32, i32* %0, i64 %18
  store i32 %22, i32* %25, align 4, !tbaa !5
  store i32 %17, i32* %21, align 4, !tbaa !5
  br label %26

26:                                               ; preds = %16, %24
  %27 = phi i32 [ %22, %16 ], [ %17, %24 ]
  %28 = add nuw nsw i64 %18, 2
  %29 = getelementptr inbounds i32, i32* %0, i64 %28
  %30 = load i32, i32* %29, align 4, !tbaa !5
  %31 = icmp sgt i32 %27, %30
  br i1 %31, label %47, label %49

32:                                               ; preds = %49, %10
  %33 = phi i32 [ %11, %10 ], [ %50, %49 ]
  %34 = phi i64 [ 0, %10 ], [ %28, %49 ]
  %35 = icmp eq i64 %12, 0
  br i1 %35, label %43, label %36

36:                                               ; preds = %32
  %37 = add nuw nsw i64 %34, 1
  %38 = getelementptr inbounds i32, i32* %0, i64 %37
  %39 = load i32, i32* %38, align 4, !tbaa !5
  %40 = icmp sgt i32 %33, %39
  br i1 %40, label %41, label %43

41:                                               ; preds = %36
  %42 = getelementptr inbounds i32, i32* %0, i64 %34
  store i32 %39, i32* %42, align 4, !tbaa !5
  store i32 %33, i32* %38, align 4, !tbaa !5
  br label %43

43:                                               ; preds = %32, %36, %41, %5
  %44 = add nuw nsw i32 %6, 1
  %45 = icmp eq i32 %44, %3
  br i1 %45, label %46, label %5, !llvm.loop !12

46:                                               ; preds = %43, %2
  ret void

47:                                               ; preds = %26
  %48 = getelementptr inbounds i32, i32* %0, i64 %20
  store i32 %30, i32* %48, align 4, !tbaa !5
  store i32 %27, i32* %29, align 4, !tbaa !5
  br label %49

49:                                               ; preds = %47, %26
  %50 = phi i32 [ %30, %26 ], [ %27, %47 ]
  %51 = add i64 %19, -2
  %52 = icmp eq i64 %51, 0
  br i1 %52, label %32, label %16, !llvm.loop !15
}

; Function Attrs: nofree nounwind sspstrong uwtable
define dso_local void @f3(i32* nocapture readonly %0, i32 %1) local_unnamed_addr #0 {
  %3 = icmp sgt i32 %1, 0
  br i1 %3, label %4, label %13

4:                                                ; preds = %2
  %5 = zext i32 %1 to i64
  br label %6

6:                                                ; preds = %4, %6
  %7 = phi i64 [ 0, %4 ], [ %11, %6 ]
  %8 = getelementptr inbounds i32, i32* %0, i64 %7
  %9 = load i32, i32* %8, align 4, !tbaa !5
  %10 = tail call i32 (i8*, ...) @printf(i8* nonnull dereferenceable(1) getelementptr inbounds ([4 x i8], [4 x i8]* @.str.2, i64 0, i64 0), i32 %9)
  %11 = add nuw nsw i64 %7, 1
  %12 = icmp eq i64 %11, %5
  br i1 %12, label %13, label %6, !llvm.loop !13

13:                                               ; preds = %6, %2
  ret void
}

; Function Attrs: nofree nounwind sspstrong uwtable
define dso_local void @f4(i32* nocapture readonly %0, i32 %1) local_unnamed_addr #0 {
  %3 = add i32 %1, -1
  %4 = icmp sgt i32 %1, 1
  br i1 %4, label %5, label %14

5:                                                ; preds = %2
  %6 = zext i32 %3 to i64
  br label %7

7:                                                ; preds = %5, %7
  %8 = phi i64 [ 0, %5 ], [ %12, %7 ]
  %9 = getelementptr inbounds i32, i32* %0, i64 %8
  %10 = load i32, i32* %9, align 4, !tbaa !5
  %11 = tail call i32 (i8*, ...) @printf(i8* nonnull dereferenceable(1) getelementptr inbounds ([4 x i8], [4 x i8]* @.str.2, i64 0, i64 0), i32 %10)
  %12 = add nuw nsw i64 %8, 1
  %13 = icmp eq i64 %12, %6
  br i1 %13, label %14, label %7, !llvm.loop !14

14:                                               ; preds = %7, %2
  %15 = sext i32 %3 to i64
  %16 = getelementptr inbounds i32, i32* %0, i64 %15
  %17 = load i32, i32* %16, align 4, !tbaa !5
  %18 = tail call i32 (i8*, ...) @printf(i8* nonnull dereferenceable(1) getelementptr inbounds ([3 x i8], [3 x i8]* @.str.1, i64 0, i64 0), i32 %17)
  ret void
}

; Function Attrs: nofree nounwind sspstrong uwtable
define dso_local void @f1() local_unnamed_addr #0 {
  %1 = tail call i32 (i8*, ...) @__isoc99_scanf(i8* getelementptr inbounds ([6 x i8], [6 x i8]* @.str, i64 0, i64 0), i32* nonnull @m, i32* nonnull @n)
  %2 = load i32, i32* @m, align 4, !tbaa !5
  %3 = icmp sgt i32 %2, 0
  br i1 %3, label %7, label %4

4:                                                ; preds = %7, %0
  %5 = load i32, i32* @n, align 4, !tbaa !5
  %6 = icmp sgt i32 %5, 0
  br i1 %6, label %15, label %23

7:                                                ; preds = %0, %7
  %8 = phi i64 [ %11, %7 ], [ 0, %0 ]
  %9 = getelementptr inbounds [100 x i32], [100 x i32]* @a, i64 0, i64 %8
  %10 = tail call i32 (i8*, ...) @__isoc99_scanf(i8* getelementptr inbounds ([3 x i8], [3 x i8]* @.str.1, i64 0, i64 0), i32* nonnull %9)
  %11 = add nuw nsw i64 %8, 1
  %12 = load i32, i32* @m, align 4, !tbaa !5
  %13 = sext i32 %12 to i64
  %14 = icmp slt i64 %11, %13
  br i1 %14, label %7, label %4, !llvm.loop !9

15:                                               ; preds = %4, %15
  %16 = phi i64 [ %19, %15 ], [ 0, %4 ]
  %17 = getelementptr inbounds [100 x i32], [100 x i32]* @b, i64 0, i64 %16
  %18 = tail call i32 (i8*, ...) @__isoc99_scanf(i8* getelementptr inbounds ([3 x i8], [3 x i8]* @.str.1, i64 0, i64 0), i32* nonnull %17)
  %19 = add nuw nsw i64 %16, 1
  %20 = load i32, i32* @n, align 4, !tbaa !5
  %21 = sext i32 %20 to i64
  %22 = icmp slt i64 %19, %21
  br i1 %22, label %15, label %23, !llvm.loop !11

23:                                               ; preds = %15, %4
  ret void
}